target datalayout = "e-m:e-p270:32:32-p271:32:32-p272:64:64-i64:64-i128:128-f80:128-n8:16:32:64-S128"
target triple = "x86_64-pc-linux-gnu"

%class.NumberlikeArray = type { i32, i32, ptr }

; Function Attrs: mustprogress uwtable
define linkonce_odr void @_ZN15NumberlikeArrayImE15allocateAndCopyEj(ptr noundef nonnull align 8 dereferenceable(16) %0, i32 noundef %1) #0 comdat align 2 {
  %3 = alloca ptr, align 8
  %4 = alloca i32, align 4
  %5 = alloca ptr, align 8
  %6 = alloca i32, align 4
  store ptr %0, ptr %3, align 8, !tbaa !13
  store i32 %1, ptr %4, align 4, !tbaa !21
  %7 = load ptr, ptr %3, align 8
  %8 = load i32, ptr %4, align 4, !tbaa !21
  %9 = getelementptr inbounds nuw %class.NumberlikeArray, ptr %7, i32 0, i32 0
  %10 = load i32, ptr %9, align 8, !tbaa !15
  %11 = icmp ugt i32 %8, %10
  br i1 %11, label %12, label %50

12:                                               ; preds = %2
  call void @llvm.lifetime.start.p0(i64 8, ptr %5) #7
  %13 = getelementptr inbounds nuw %class.NumberlikeArray, ptr %7, i32 0, i32 2
  %14 = load ptr, ptr %13, align 8, !tbaa !20
  store ptr %14, ptr %5, align 8, !tbaa !29
  %15 = load i32, ptr %4, align 4, !tbaa !21
  %16 = getelementptr inbounds nuw %class.NumberlikeArray, ptr %7, i32 0, i32 0
  store i32 %15, ptr %16, align 8, !tbaa !15
  %17 = getelementptr inbounds nuw %class.NumberlikeArray, ptr %7, i32 0, i32 0
  %18 = load i32, ptr %17, align 8, !tbaa !15
  %19 = zext i32 %18 to i64
  %20 = call { i64, i1 } @llvm.umul.with.overflow.i64(i64 %19, i64 8)
  %21 = extractvalue { i64, i1 } %20, 1
  %22 = extractvalue { i64, i1 } %20, 0
  %23 = select i1 %21, i64 -1, i64 %22
  %24 = call noalias noundef nonnull ptr @_Znam(i64 noundef %23) #8
  %25 = getelementptr inbounds nuw %class.NumberlikeArray, ptr %7, i32 0, i32 2
  store ptr %24, ptr %25, align 8, !tbaa !20
  call void @llvm.lifetime.start.p0(i64 4, ptr %6) #7
  store i32 0, ptr %6, align 4, !tbaa !21
  br label %26

26:                                               ; preds = %42, %12
  %27 = load i32, ptr %6, align 4, !tbaa !21
  %28 = getelementptr inbounds nuw %class.NumberlikeArray, ptr %7, i32 0, i32 1
  %29 = load i32, ptr %28, align 4, !tbaa !19
  %30 = icmp ult i32 %27, %29
  br i1 %30, label %31, label %45

31:                                               ; preds = %26
  %32 = load ptr, ptr %5, align 8, !tbaa !29
  %33 = load i32, ptr %6, align 4, !tbaa !21
  %34 = zext i32 %33 to i64
  %35 = getelementptr inbounds nuw i64, ptr %32, i64 %34
  %36 = load i64, ptr %35, align 8, !tbaa !11
  %37 = getelementptr inbounds nuw %class.NumberlikeArray, ptr %7, i32 0, i32 2
  %38 = load ptr, ptr %37, align 8, !tbaa !20
  %39 = load i32, ptr %6, align 4, !tbaa !21
  %40 = zext i32 %39 to i64
  %41 = getelementptr inbounds nuw i64, ptr %38, i64 %40
  store i64 %36, ptr %41, align 8, !tbaa !11
  br label %42

42:                                               ; preds = %31
  %43 = load i32, ptr %6, align 4, !tbaa !21
  %44 = add i32 %43, 1
  store i32 %44, ptr %6, align 4, !tbaa !21
  br label %26, !llvm.loop !30

45:                                               ; preds = %26
  %46 = load ptr, ptr %5, align 8, !tbaa !29
  %47 = icmp eq ptr %46, null
  br i1 %47, label %49, label %48

48:                                               ; preds = %45
  call void @_ZdaPv(ptr noundef %46) #10
  br label %49

49:                                               ; preds = %48, %45
  call void @llvm.lifetime.end.p0(i64 4, ptr %6) #7
  call void @llvm.lifetime.end.p0(i64 8, ptr %5) #7
  br label %50

50:                                               ; preds = %49, %2
  ret void
}

; Function Attrs: mustprogress nounwind uwtable
define linkonce_odr void @_ZN11BigUnsigned15zapLeadingZerosEv(ptr noundef nonnull align 8 dereferenceable(16) %0) #1 comdat align 2 {
  %2 = alloca ptr, align 8
  store ptr %0, ptr %2, align 8, !tbaa !6
  %3 = load ptr, ptr %2, align 8
  br label %4

4:                                                ; preds = %20, %1
  %5 = getelementptr inbounds nuw %class.NumberlikeArray, ptr %3, i32 0, i32 1
  %6 = load i32, ptr %5, align 4, !tbaa !19
  %7 = icmp ugt i32 %6, 0
  br i1 %7, label %8, label %18

8:                                                ; preds = %4
  %9 = getelementptr inbounds nuw %class.NumberlikeArray, ptr %3, i32 0, i32 2
  %10 = load ptr, ptr %9, align 8, !tbaa !20
  %11 = getelementptr inbounds nuw %class.NumberlikeArray, ptr %3, i32 0, i32 1
  %12 = load i32, ptr %11, align 4, !tbaa !19
  %13 = sub i32 %12, 1
  %14 = zext i32 %13 to i64
  %15 = getelementptr inbounds nuw i64, ptr %10, i64 %14
  %16 = load i64, ptr %15, align 8, !tbaa !11
  %17 = icmp eq i64 %16, 0
  br label %18

18:                                               ; preds = %8, %4
  %19 = phi i1 [ false, %4 ], [ %17, %8 ]
  br i1 %19, label %20, label %24

20:                                               ; preds = %18
  %21 = getelementptr inbounds nuw %class.NumberlikeArray, ptr %3, i32 0, i32 1
  %22 = load i32, ptr %21, align 4, !tbaa !19
  %23 = add i32 %22, -1
  store i32 %23, ptr %21, align 4, !tbaa !19
  br label %4, !llvm.loop !28

24:                                               ; preds = %18
  ret void
}

; Function Attrs: mustprogress uwtable
define void @_ZN11BigUnsigned8setBlockEjm(ptr noundef nonnull align 8 dereferenceable(16) %0, i32 noundef %1, i64 noundef %2) #0 align 2 {
  %4 = alloca ptr, align 8
  %5 = alloca i32, align 4
  %6 = alloca i64, align 8
  %7 = alloca i32, align 4
  store ptr %0, ptr %4, align 8, !tbaa !6
  store i32 %1, ptr %5, align 4, !tbaa !21
  store i64 %2, ptr %6, align 8, !tbaa !11
  %8 = load ptr, ptr %4, align 8
  %9 = load i64, ptr %6, align 8, !tbaa !11
  %10 = icmp eq i64 %9, 0
  br i1 %10, label %11, label %23

11:                                               ; preds = %3
  %12 = load i32, ptr %5, align 4, !tbaa !21
  %13 = getelementptr inbounds nuw %class.NumberlikeArray, ptr %8, i32 0, i32 1
  %14 = load i32, ptr %13, align 4, !tbaa !19
  %15 = icmp ult i32 %12, %14
  br i1 %15, label %16, label %22

16:                                               ; preds = %11
  %17 = getelementptr inbounds nuw %class.NumberlikeArray, ptr %8, i32 0, i32 2
  %18 = load ptr, ptr %17, align 8, !tbaa !20
  %19 = load i32, ptr %5, align 4, !tbaa !21
  %20 = zext i32 %19 to i64
  %21 = getelementptr inbounds nuw i64, ptr %18, i64 %20
  store i64 0, ptr %21, align 8, !tbaa !11
  call void @_ZN11BigUnsigned15zapLeadingZerosEv(ptr noundef nonnull align 8 dereferenceable(16) %8)
  br label %22

22:                                               ; preds = %16, %11
  br label %58

23:                                               ; preds = %3
  %24 = load i32, ptr %5, align 4, !tbaa !21
  %25 = getelementptr inbounds nuw %class.NumberlikeArray, ptr %8, i32 0, i32 1
  %26 = load i32, ptr %25, align 4, !tbaa !19
  %27 = icmp uge i32 %24, %26
  br i1 %27, label %28, label %51

28:                                               ; preds = %23
  %29 = load i32, ptr %5, align 4, !tbaa !21
  %30 = add i32 %29, 1
  call void @_ZN15NumberlikeArrayImE15allocateAndCopyEj(ptr noundef nonnull align 8 dereferenceable(16) %8, i32 noundef %30)
  call void @llvm.lifetime.start.p0(i64 4, ptr %7) #7
  %31 = getelementptr inbounds nuw %class.NumberlikeArray, ptr %8, i32 0, i32 1
  %32 = load i32, ptr %31, align 4, !tbaa !19
  store i32 %32, ptr %7, align 4, !tbaa !21
  br label %33

33:                                               ; preds = %44, %28
  %34 = load i32, ptr %7, align 4, !tbaa !21
  %35 = load i32, ptr %5, align 4, !tbaa !21
  %36 = icmp ult i32 %34, %35
  br i1 %36, label %38, label %37

37:                                               ; preds = %33
  call void @llvm.lifetime.end.p0(i64 4, ptr %7) #7
  br label %47

38:                                               ; preds = %33
  %39 = getelementptr inbounds nuw %class.NumberlikeArray, ptr %8, i32 0, i32 2
  %40 = load ptr, ptr %39, align 8, !tbaa !20
  %41 = load i32, ptr %7, align 4, !tbaa !21
  %42 = zext i32 %41 to i64
  %43 = getelementptr inbounds nuw i64, ptr %40, i64 %42
  store i64 0, ptr %43, align 8, !tbaa !11
  br label %44

44:                                               ; preds = %38
  %45 = load i32, ptr %7, align 4, !tbaa !21
  %46 = add i32 %45, 1
  store i32 %46, ptr %7, align 4, !tbaa !21
  br label %33, !llvm.loop !26

47:                                               ; preds = %37
  %48 = load i32, ptr %5, align 4, !tbaa !21
  %49 = add i32 %48, 1
  %50 = getelementptr inbounds nuw %class.NumberlikeArray, ptr %8, i32 0, i32 1
  store i32 %49, ptr %50, align 4, !tbaa !19
  br label %51

51:                                               ; preds = %47, %23
  %52 = load i64, ptr %6, align 8, !tbaa !11
  %53 = getelementptr inbounds nuw %class.NumberlikeArray, ptr %8, i32 0, i32 2
  %54 = load ptr, ptr %53, align 8, !tbaa !20
  %55 = load i32, ptr %5, align 4, !tbaa !21
  %56 = zext i32 %55 to i64
  %57 = getelementptr inbounds nuw i64, ptr %54, i64 %56
  store i64 %52, ptr %57, align 8, !tbaa !11
  br label %58

58:                                               ; preds = %51, %22
  ret void
}