; Function Attrs: mustprogress uwtable
define void @_ZN11BigUnsigned8setBlockEjm(ptr noundef nonnull align 8 captures(none) dereferenceable(16) %0, i32 noundef %1, i64 noundef %2) local_unnamed_addr #0 align 2 {
  %4 = icmp eq i64 %2, 0
  %5 = getelementptr inbounds nuw i8, ptr %0, i64 4
  %6 = load i32, ptr %5, align 4, !tbaa !14
  %7 = icmp ult i32 %1, %6
  br i1 %4, label %8, label %20

8:                                                ; preds = %3
  br i1 %7, label %.lr.ph.i, label %_ZN11BigUnsigned15zapLeadingZerosEv.exit

.lr.ph.i:                                         ; preds = %8
  %9 = getelementptr inbounds nuw i8, ptr %0, i64 8
  %10 = load ptr, ptr %9, align 8, !tbaa !13
  %11 = zext i32 %1 to i64
  %12 = getelementptr inbounds nuw i64, ptr %10, i64 %11
  store i64 0, ptr %12, align 8, !tbaa !15
  %13 = zext i32 %6 to i64
  br label %14

14:                                               ; preds = %19, %.lr.ph.i
  %indvars.iv.i = phi i64 [ %13, %.lr.ph.i ], [ %indvars.iv.next.i, %19 ]
  %indvars.iv.next.i = add nsw i64 %indvars.iv.i, -1
  %15 = and i64 %indvars.iv.next.i, 4294967295
  %16 = getelementptr inbounds nuw i64, ptr %10, i64 %15
  %17 = load i64, ptr %16, align 8, !tbaa !15
  %18 = icmp eq i64 %17, 0
  br i1 %18, label %19, label %_ZN11BigUnsigned15zapLeadingZerosEv.exit

19:                                               ; preds = %14
  %indvars.i = trunc i64 %indvars.iv.next.i to i32
  store i32 %indvars.i, ptr %5, align 4, !tbaa !14
  %.not.i = icmp eq i32 %indvars.i, 0
  br i1 %.not.i, label %_ZN11BigUnsigned15zapLeadingZerosEv.exit, label %14, !llvm.loop !19

20:                                               ; preds = %3
  br i1 %7, label %46, label %21

21:                                               ; preds = %20
  %22 = add i32 %1, 1
  %23 = load i32, ptr %0, align 8, !tbaa !6
  %24 = icmp ugt i32 %22, %23
  br i1 %24, label %25, label %_ZN15NumberlikeArrayImE15allocateAndCopyEj.exit

25:                                               ; preds = %21
  %26 = getelementptr inbounds nuw i8, ptr %0, i64 8
  %27 = load ptr, ptr %26, align 8, !tbaa !13
  store i32 %22, ptr %0, align 8, !tbaa !6
  %28 = zext i32 %22 to i64
  %29 = shl nuw nsw i64 %28, 3
  %30 = tail call noalias noundef nonnull ptr @_Znam(i64 noundef %29) #8
  store ptr %30, ptr %26, align 8, !tbaa !13
  %.not.i14 = icmp eq i32 %6, 0
  br i1 %.not.i14, label %._crit_edge.i, label %.lr.ph.preheader.i

.lr.ph.preheader.i:                               ; preds = %25
  %wide.trip.count.i = zext i32 %6 to i64
  br label %.lr.ph.i15

.lr.ph.i15:                                       ; preds = %.lr.ph.i15, %.lr.ph.preheader.i
  %indvars.iv.i16 = phi i64 [ 0, %.lr.ph.preheader.i ], [ %indvars.iv.next.i17, %.lr.ph.i15 ]
  %31 = getelementptr inbounds nuw i64, ptr %27, i64 %indvars.iv.i16
  %32 = load i64, ptr %31, align 8, !tbaa !15
  %33 = getelementptr inbounds nuw i64, ptr %30, i64 %indvars.iv.i16
  store i64 %32, ptr %33, align 8, !tbaa !15
  %indvars.iv.next.i17 = add nuw nsw i64 %indvars.iv.i16, 1
  %exitcond.not.i = icmp eq i64 %indvars.iv.next.i17, %wide.trip.count.i
  br i1 %exitcond.not.i, label %._crit_edge.thread.i, label %.lr.ph.i15, !llvm.loop !21

._crit_edge.i:                                    ; preds = %25
  %34 = icmp eq ptr %27, null
  br i1 %34, label %_ZN15NumberlikeArrayImE15allocateAndCopyEj.exit, label %._crit_edge.thread.i

._crit_edge.thread.i:                             ; preds = %.lr.ph.i15, %._crit_edge.i
  tail call void @_ZdaPv(ptr noundef nonnull %27) #11
  %.pre = load i32, ptr %5, align 4, !tbaa !14
  br label %_ZN15NumberlikeArrayImE15allocateAndCopyEj.exit

_ZN15NumberlikeArrayImE15allocateAndCopyEj.exit:  ; preds = %21, %._crit_edge.i, %._crit_edge.thread.i
  %35 = phi i32 [ %6, %21 ], [ 0, %._crit_edge.i ], [ %.pre, %._crit_edge.thread.i ]
  %36 = icmp ult i32 %35, %1
  br i1 %36, label %.lr.ph, label %._crit_edge

.lr.ph:                                           ; preds = %_ZN15NumberlikeArrayImE15allocateAndCopyEj.exit
  %37 = getelementptr inbounds nuw i8, ptr %0, i64 8
  %38 = load ptr, ptr %37, align 8, !tbaa !13
  %39 = zext i32 %35 to i64
  %40 = shl nuw nsw i64 %39, 3
  %scevgep = getelementptr nuw i8, ptr %38, i64 %40
  %41 = xor i32 %35, -1
  %42 = add i32 %1, %41
  %43 = zext i32 %42 to i64
  %44 = shl nuw nsw i64 %43, 3
  %45 = add nuw nsw i64 %44, 8
  tail call void @llvm.memset.p0.i64(ptr noundef nonnull align 8 dereferenceable(1) %scevgep, i8 0, i64 %45, i1 false), !tbaa !15
  br label %._crit_edge

._crit_edge:                                      ; preds = %.lr.ph, %_ZN15NumberlikeArrayImE15allocateAndCopyEj.exit
  store i32 %22, ptr %5, align 4, !tbaa !14
  br label %46

46:                                               ; preds = %._crit_edge, %20
  %47 = getelementptr inbounds nuw i8, ptr %0, i64 8
  %48 = load ptr, ptr %47, align 8, !tbaa !13
  %49 = zext i32 %1 to i64
  %50 = getelementptr inbounds nuw i64, ptr %48, i64 %49
  store i64 %2, ptr %50, align 8, !tbaa !15
  br label %_ZN11BigUnsigned15zapLeadingZerosEv.exit

_ZN11BigUnsigned15zapLeadingZerosEv.exit:         ; preds = %19, %14, %8, %46
  ret void
}